target datalayout = "e-m:e-p270:32:32-p271:32:32-p272:64:64-i64:64-i128:128-f80:128-n8:16:32:64-S128"
target triple = "x86_64-pc-linux-gnu"

%struct.IDAMemRec = type { double, ptr, ptr, i32, double, double, ptr, i32, ptr, ptr, i32, ptr, ptr, i32, i32, double, double, ptr, i32, i32, i32, ptr, ptr, i32, ptr, ptr, ptr, i32, double, i32, i32, double, ptr, ptr, i32, ptr, ptr, i32, i32, i32, double, ptr, ptr, [6 x ptr], [6 x double], [6 x double], [6 x double], [6 x double], [6 x double], ptr, ptr, ptr, ptr, ptr, ptr, ptr, ptr, ptr, ptr, ptr, ptr, ptr, ptr, ptr, [6 x ptr], ptr, ptr, ptr, ptr, [6 x ptr], ptr, ptr, ptr, ptr, ptr, ptr, ptr, ptr, ptr, ptr, ptr, ptr, ptr, ptr, [6 x ptr], ptr, ptr, ptr, ptr, ptr, double, ptr, ptr, i32, i32, i32, i32, i32, i32, i32, double, double, double, i32, double, i32, i32, i32, i32, double, double, double, double, double, double, double, double, double, double, double, double, double, double, i32, i32, i32, i32, i32, i64, double, i32, i64, i64, i64, i64, i64, i64, i64, i64, i64, i64, i64, i64, i64, i64, i64, i64, i64, i64, i64, i64, i64, i64, i64, i64, ptr, ptr, ptr, i32, i32, i32, i32, i32, i32, i32, i32, i32, i32, i32, i32, i32, ptr, ptr, ptr, ptr, ptr, ptr, i32, i32, i32, i32, i32, i32, double, double, double, ptr, i32, ptr, ptr, double, double, double, ptr, ptr, ptr, double, double, i32, i32, i64, ptr, i32, i32, ptr, i32 }

@.str = private unnamed_addr constant [5 x i8] c"IDAS\00", align 1
@.str.4 = private unnamed_addr constant [24 x i8] c"ida_mem = NULL illegal.\00", align 1
@.str.76 = private unnamed_addr constant [76 x i8] c"Illegal value for t. t = %lg is not between tcur - hu = %lg and tcur = %lg.\00", align 1
@.str.106 = private unnamed_addr constant [15 x i8] c"IDAGetSolution\00", align 1

; Function Attrs: nounwind uwtable
define i32 @IDAGetSolution(ptr noundef %0, double noundef %1, ptr noundef %2, ptr noundef %3) #0 {
  %5 = alloca i32, align 4
  %6 = alloca ptr, align 8
  %7 = alloca double, align 8
  %8 = alloca ptr, align 8
  %9 = alloca ptr, align 8
  %10 = alloca ptr, align 8
  %11 = alloca double, align 8
  %12 = alloca double, align 8
  %13 = alloca double, align 8
  %14 = alloca double, align 8
  %15 = alloca double, align 8
  %16 = alloca double, align 8
  %17 = alloca i32, align 4
  %18 = alloca i32, align 4
  %19 = alloca i32, align 4
  store ptr %0, ptr %6, align 8, !tbaa !91
  store double %1, ptr %7, align 8, !tbaa !92
  store ptr %2, ptr %8, align 8, !tbaa !93
  store ptr %3, ptr %9, align 8, !tbaa !93
  call void @llvm.lifetime.start.p0(i64 8, ptr %10) #8
  call void @llvm.lifetime.start.p0(i64 8, ptr %11) #8
  call void @llvm.lifetime.start.p0(i64 8, ptr %12) #8
  call void @llvm.lifetime.start.p0(i64 8, ptr %13) #8
  call void @llvm.lifetime.start.p0(i64 8, ptr %14) #8
  call void @llvm.lifetime.start.p0(i64 8, ptr %15) #8
  call void @llvm.lifetime.start.p0(i64 8, ptr %16) #8
  call void @llvm.lifetime.start.p0(i64 4, ptr %17) #8
  call void @llvm.lifetime.start.p0(i64 4, ptr %18) #8
  %20 = load ptr, ptr %6, align 8, !tbaa !91
  %21 = icmp eq ptr %20, null
  br i1 %21, label %22, label %23

22:                                               ; preds = %4
  call void (ptr, i32, ptr, ptr, ptr, ...) @IDAProcessError(ptr noundef null, i32 noundef -20, ptr noundef @.str, ptr noundef @.str.106, ptr noundef @.str.4)
  store i32 -20, ptr %5, align 4
  store i32 1, ptr %19, align 4
  br label %162

23:                                               ; preds = %4
  %24 = load ptr, ptr %6, align 8, !tbaa !91
  store ptr %24, ptr %10, align 8, !tbaa !3
  %25 = load ptr, ptr %10, align 8, !tbaa !3
  %26 = getelementptr inbounds nuw %struct.IDAMemRec, ptr %25, i32 0, i32 0
  %27 = load double, ptr %26, align 8, !tbaa !8
  %28 = fmul double 1.000000e+02, %27
  %29 = load ptr, ptr %10, align 8, !tbaa !3
  %30 = getelementptr inbounds nuw %struct.IDAMemRec, ptr %29, i32 0, i32 112
  %31 = load double, ptr %30, align 8, !tbaa !106
  %32 = call double @SUNRabs(double noundef %31)
  %33 = load ptr, ptr %10, align 8, !tbaa !3
  %34 = getelementptr inbounds nuw %struct.IDAMemRec, ptr %33, i32 0, i32 110
  %35 = load double, ptr %34, align 8, !tbaa !228
  %36 = call double @SUNRabs(double noundef %35)
  %37 = fadd double %32, %36
  %38 = fmul double %28, %37
  store double %38, ptr %11, align 8, !tbaa !92
  %39 = load ptr, ptr %10, align 8, !tbaa !3
  %40 = getelementptr inbounds nuw %struct.IDAMemRec, ptr %39, i32 0, i32 110
  %41 = load double, ptr %40, align 8, !tbaa !228
  %42 = fcmp olt double %41, 0.000000e+00
  br i1 %42, label %43, label %46

43:                                               ; preds = %23
  %44 = load double, ptr %11, align 8, !tbaa !92
  %45 = fneg double %44
  store double %45, ptr %11, align 8, !tbaa !92
  br label %46

46:                                               ; preds = %43, %23
  %47 = load ptr, ptr %10, align 8, !tbaa !3
  %48 = getelementptr inbounds nuw %struct.IDAMemRec, ptr %47, i32 0, i32 112
  %49 = load double, ptr %48, align 8, !tbaa !106
  %50 = load ptr, ptr %10, align 8, !tbaa !3
  %51 = getelementptr inbounds nuw %struct.IDAMemRec, ptr %50, i32 0, i32 184
  %52 = load double, ptr %51, align 8, !tbaa !121
  %53 = fsub double %49, %52
  %54 = load double, ptr %11, align 8, !tbaa !92
  %55 = fsub double %53, %54
  store double %55, ptr %12, align 8, !tbaa !92
  %56 = load double, ptr %7, align 8, !tbaa !92
  %57 = load double, ptr %12, align 8, !tbaa !92
  %58 = fsub double %56, %57
  %59 = load ptr, ptr %10, align 8, !tbaa !3
  %60 = getelementptr inbounds nuw %struct.IDAMemRec, ptr %59, i32 0, i32 110
  %61 = load double, ptr %60, align 8, !tbaa !228
  %62 = fmul double %58, %61
  %63 = fcmp olt double %62, 0.000000e+00
  br i1 %63, label %64, label %77

64:                                               ; preds = %46
  %65 = load ptr, ptr %10, align 8, !tbaa !3
  %66 = load double, ptr %7, align 8, !tbaa !92
  %67 = load ptr, ptr %10, align 8, !tbaa !3
  %68 = getelementptr inbounds nuw %struct.IDAMemRec, ptr %67, i32 0, i32 112
  %69 = load double, ptr %68, align 8, !tbaa !106
  %70 = load ptr, ptr %10, align 8, !tbaa !3
  %71 = getelementptr inbounds nuw %struct.IDAMemRec, ptr %70, i32 0, i32 184
  %72 = load double, ptr %71, align 8, !tbaa !121
  %73 = fsub double %69, %72
  %74 = load ptr, ptr %10, align 8, !tbaa !3
  %75 = getelementptr inbounds nuw %struct.IDAMemRec, ptr %74, i32 0, i32 112
  %76 = load double, ptr %75, align 8, !tbaa !106
  call void (ptr, i32, ptr, ptr, ptr, ...) @IDAProcessError(ptr noundef %65, i32 noundef -26, ptr noundef @.str, ptr noundef @.str.106, ptr noundef @.str.76, double noundef %66, double noundef %73, double noundef %76)
  store i32 -26, ptr %5, align 4
  store i32 1, ptr %19, align 4
  br label %162

77:                                               ; preds = %46
  %78 = load ptr, ptr %10, align 8, !tbaa !3
  %79 = getelementptr inbounds nuw %struct.IDAMemRec, ptr %78, i32 0, i32 43
  %80 = getelementptr inbounds [6 x ptr], ptr %79, i64 0, i64 0
  %81 = load ptr, ptr %80, align 8, !tbaa !93
  %82 = load ptr, ptr %8, align 8, !tbaa !93
  call void @N_VScale(double noundef 1.000000e+00, ptr noundef %81, ptr noundef %82)
  %83 = load ptr, ptr %9, align 8, !tbaa !93
  call void @N_VConst(double noundef 0.000000e+00, ptr noundef %83)
  %84 = load ptr, ptr %10, align 8, !tbaa !3
  %85 = getelementptr inbounds nuw %struct.IDAMemRec, ptr %84, i32 0, i32 182
  %86 = load i32, ptr %85, align 4, !tbaa !120
  store i32 %86, ptr %18, align 4, !tbaa !88
  %87 = load ptr, ptr %10, align 8, !tbaa !3
  %88 = getelementptr inbounds nuw %struct.IDAMemRec, ptr %87, i32 0, i32 182
  %89 = load i32, ptr %88, align 4, !tbaa !120
  %90 = icmp eq i32 %89, 0
  br i1 %90, label %91, label %92

91:                                               ; preds = %77
  store i32 1, ptr %18, align 4, !tbaa !88
  br label %92

92:                                               ; preds = %91, %77
  %93 = load double, ptr %7, align 8, !tbaa !92
  %94 = load ptr, ptr %10, align 8, !tbaa !3
  %95 = getelementptr inbounds nuw %struct.IDAMemRec, ptr %94, i32 0, i32 112
  %96 = load double, ptr %95, align 8, !tbaa !106
  %97 = fsub double %93, %96
  store double %97, ptr %13, align 8, !tbaa !92
  store double 1.000000e+00, ptr %14, align 8, !tbaa !92
  store double 0.000000e+00, ptr %15, align 8, !tbaa !92
  %98 = load double, ptr %13, align 8, !tbaa !92
  %99 = load ptr, ptr %10, align 8, !tbaa !3
  %100 = getelementptr inbounds nuw %struct.IDAMemRec, ptr %99, i32 0, i32 44
  %101 = getelementptr inbounds [6 x double], ptr %100, i64 0, i64 0
  %102 = load double, ptr %101, align 8, !tbaa !92
  %103 = fdiv double %98, %102
  store double %103, ptr %16, align 8, !tbaa !92
  store i32 1, ptr %17, align 4, !tbaa !88
  br label %104

104:                                              ; preds = %158, %92
  %105 = load i32, ptr %17, align 4, !tbaa !88
  %106 = load i32, ptr %18, align 4, !tbaa !88
  %107 = icmp sle i32 %105, %106
  br i1 %107, label %108, label %161

108:                                              ; preds = %104
  %109 = load double, ptr %15, align 8, !tbaa !92
  %110 = load double, ptr %16, align 8, !tbaa !92
  %111 = load double, ptr %14, align 8, !tbaa !92
  %112 = load ptr, ptr %10, align 8, !tbaa !3
  %113 = getelementptr inbounds nuw %struct.IDAMemRec, ptr %112, i32 0, i32 44
  %114 = load i32, ptr %17, align 4, !tbaa !88
  %115 = sub nsw i32 %114, 1
  %116 = sext i32 %115 to i64
  %117 = getelementptr inbounds [6 x double], ptr %113, i64 0, i64 %116
  %118 = load double, ptr %117, align 8, !tbaa !92
  %119 = fdiv double %111, %118
  %120 = call double @llvm.fmuladd.f64(double %109, double %110, double %119)
  store double %120, ptr %15, align 8, !tbaa !92
  %121 = load double, ptr %14, align 8, !tbaa !92
  %122 = load double, ptr %16, align 8, !tbaa !92
  %123 = fmul double %121, %122
  store double %123, ptr %14, align 8, !tbaa !92
  %124 = load double, ptr %13, align 8, !tbaa !92
  %125 = load ptr, ptr %10, align 8, !tbaa !3
  %126 = getelementptr inbounds nuw %struct.IDAMemRec, ptr %125, i32 0, i32 44
  %127 = load i32, ptr %17, align 4, !tbaa !88
  %128 = sub nsw i32 %127, 1
  %129 = sext i32 %128 to i64
  %130 = getelementptr inbounds [6 x double], ptr %126, i64 0, i64 %129
  %131 = load double, ptr %130, align 8, !tbaa !92
  %132 = fadd double %124, %131
  %133 = load ptr, ptr %10, align 8, !tbaa !3
  %134 = getelementptr inbounds nuw %struct.IDAMemRec, ptr %133, i32 0, i32 44
  %135 = load i32, ptr %17, align 4, !tbaa !88
  %136 = sext i32 %135 to i64
  %137 = getelementptr inbounds [6 x double], ptr %134, i64 0, i64 %136
  %138 = load double, ptr %137, align 8, !tbaa !92
  %139 = fdiv double %132, %138
  store double %139, ptr %16, align 8, !tbaa !92
  %140 = load ptr, ptr %8, align 8, !tbaa !93
  %141 = load double, ptr %14, align 8, !tbaa !92
  %142 = load ptr, ptr %10, align 8, !tbaa !3
  %143 = getelementptr inbounds nuw %struct.IDAMemRec, ptr %142, i32 0, i32 43
  %144 = load i32, ptr %17, align 4, !tbaa !88
  %145 = sext i32 %144 to i64
  %146 = getelementptr inbounds [6 x ptr], ptr %143, i64 0, i64 %145
  %147 = load ptr, ptr %146, align 8, !tbaa !93
  %148 = load ptr, ptr %8, align 8, !tbaa !93
  call void @N_VLinearSum(double noundef 1.000000e+00, ptr noundef %140, double noundef %141, ptr noundef %147, ptr noundef %148)
  %149 = load ptr, ptr %9, align 8, !tbaa !93
  %150 = load double, ptr %15, align 8, !tbaa !92
  %151 = load ptr, ptr %10, align 8, !tbaa !3
  %152 = getelementptr inbounds nuw %struct.IDAMemRec, ptr %151, i32 0, i32 43
  %153 = load i32, ptr %17, align 4, !tbaa !88
  %154 = sext i32 %153 to i64
  %155 = getelementptr inbounds [6 x ptr], ptr %152, i64 0, i64 %154
  %156 = load ptr, ptr %155, align 8, !tbaa !93
  %157 = load ptr, ptr %9, align 8, !tbaa !93
  call void @N_VLinearSum(double noundef 1.000000e+00, ptr noundef %149, double noundef %150, ptr noundef %156, ptr noundef %157)
  br label %158

158:                                              ; preds = %108
  %159 = load i32, ptr %17, align 4, !tbaa !88
  %160 = add nsw i32 %159, 1
  store i32 %160, ptr %17, align 4, !tbaa !88
  br label %104, !llvm.loop !252

161:                                              ; preds = %104
  store i32 0, ptr %5, align 4
  store i32 1, ptr %19, align 4
  br label %162

162:                                              ; preds = %161, %64, %22
  call void @llvm.lifetime.end.p0(i64 4, ptr %18) #8
  call void @llvm.lifetime.end.p0(i64 4, ptr %17) #8
  call void @llvm.lifetime.end.p0(i64 8, ptr %16) #8
  call void @llvm.lifetime.end.p0(i64 8, ptr %15) #8
  call void @llvm.lifetime.end.p0(i64 8, ptr %14) #8
  call void @llvm.lifetime.end.p0(i64 8, ptr %13) #8
  call void @llvm.lifetime.end.p0(i64 8, ptr %12) #8
  call void @llvm.lifetime.end.p0(i64 8, ptr %11) #8
  call void @llvm.lifetime.end.p0(i64 8, ptr %10) #8
  %163 = load i32, ptr %5, align 4
  ret i32 %163
}