; Function Attrs: nounwind uwtable
define range(i32 -26, 1) i32 @IDAGetSolution(ptr noundef captures(address_is_null) %0, double noundef %1, ptr noundef %2, ptr noundef %3) local_unnamed_addr #0 {
  %5 = icmp eq ptr %0, null
  br i1 %5, label %6, label %7

6:                                                ; preds = %4
  tail call void (ptr, i32, ptr, ptr, ptr, ...) @IDAProcessError(ptr noundef null, i32 noundef -20, ptr noundef nonnull @.str, ptr noundef nonnull @.str.106, ptr noundef nonnull @.str.4)
  br label %.loopexit

7:                                                ; preds = %4
  %8 = load double, ptr %0, align 8, !tbaa !3
  %9 = fmul double %8, 1.000000e+02
  %10 = getelementptr inbounds nuw i8, ptr %0, i64 1184
  %11 = load double, ptr %10, align 8, !tbaa !98
  %12 = tail call double @SUNRabs(double noundef %11) #13
  %13 = getelementptr inbounds nuw i8, ptr %0, i64 1168
  %14 = load double, ptr %13, align 8, !tbaa !205
  %15 = tail call double @SUNRabs(double noundef %14) #13
  %16 = fadd double %12, %15
  %17 = fmul double %9, %16
  %18 = load double, ptr %13, align 8, !tbaa !205
  %19 = fcmp olt double %18, 0.000000e+00
  %20 = fneg double %17
  %.056 = select i1 %19, double %20, double %17
  %21 = load double, ptr %10, align 8, !tbaa !98
  %22 = getelementptr inbounds nuw i8, ptr %0, i64 1672
  %23 = load double, ptr %22, align 8, !tbaa !104
  %24 = fsub double %21, %23
  %25 = fsub double %24, %.056
  %26 = fsub double %1, %25
  %27 = fmul double %18, %26
  %28 = fcmp olt double %27, 0.000000e+00
  br i1 %28, label %29, label %30

29:                                               ; preds = %7
  tail call void (ptr, i32, ptr, ptr, ptr, ...) @IDAProcessError(ptr noundef nonnull %0, i32 noundef -26, ptr noundef nonnull @.str, ptr noundef nonnull @.str.106, ptr noundef nonnull @.str.76, double noundef %1, double noundef %24, double noundef %21)
  br label %.loopexit

30:                                               ; preds = %7
  %31 = getelementptr inbounds nuw i8, ptr %0, i64 312
  %32 = load ptr, ptr %31, align 8, !tbaa !57
  tail call void @N_VScale(double noundef 1.000000e+00, ptr noundef %32, ptr noundef %2) #13
  tail call void @N_VConst(double noundef 0.000000e+00, ptr noundef %3) #13
  %33 = getelementptr inbounds nuw i8, ptr %0, i64 1660
  %34 = load i32, ptr %33, align 4, !tbaa !103
  %spec.store.select = tail call i32 @llvm.umax.i32(i32 %34, i32 1)
  %35 = load double, ptr %10, align 8, !tbaa !98
  %36 = fsub double %1, %35
  %37 = getelementptr inbounds nuw i8, ptr %0, i64 360
  %.not58 = icmp slt i32 %spec.store.select, 1
  br i1 %.not58, label %.loopexit, label %.lr.ph.preheader

.lr.ph.preheader:                                 ; preds = %30
  %38 = load double, ptr %37, align 8, !tbaa !60
  %39 = fdiv double %36, %38
  %40 = add nuw i32 %spec.store.select, 1
  %wide.trip.count = zext i32 %40 to i64
  br label %.lr.ph

.lr.ph:                                           ; preds = %.lr.ph.preheader, %.lr.ph
  %indvars.iv = phi i64 [ 1, %.lr.ph.preheader ], [ %indvars.iv.next, %.lr.ph ]
  %.05261 = phi double [ %39, %.lr.ph.preheader ], [ %50, %.lr.ph ]
  %.05360 = phi double [ 0.000000e+00, %.lr.ph.preheader ], [ %45, %.lr.ph ]
  %.05459 = phi double [ 1.000000e+00, %.lr.ph.preheader ], [ %46, %.lr.ph ]
  %41 = add nsw i64 %indvars.iv, -1
  %42 = getelementptr inbounds [6 x double], ptr %37, i64 0, i64 %41
  %43 = load double, ptr %42, align 8, !tbaa !60
  %44 = fdiv double %.05459, %43
  %45 = tail call double @llvm.fmuladd.f64(double %.05360, double %.05261, double %44)
  %46 = fmul double %.05459, %.05261
  %47 = fadd double %36, %43
  %48 = getelementptr inbounds nuw [6 x double], ptr %37, i64 0, i64 %indvars.iv
  %49 = load double, ptr %48, align 8, !tbaa !60
  %50 = fdiv double %47, %49
  %51 = getelementptr inbounds nuw [6 x ptr], ptr %31, i64 0, i64 %indvars.iv
  %52 = load ptr, ptr %51, align 8, !tbaa !57
  tail call void @N_VLinearSum(double noundef 1.000000e+00, ptr noundef %2, double noundef %46, ptr noundef %52, ptr noundef %2) #13
  %53 = load ptr, ptr %51, align 8, !tbaa !57
  tail call void @N_VLinearSum(double noundef 1.000000e+00, ptr noundef %3, double noundef %45, ptr noundef %53, ptr noundef %3) #13
  %indvars.iv.next = add nuw nsw i64 %indvars.iv, 1
  %exitcond.not = icmp eq i64 %indvars.iv.next, %wide.trip.count
  br i1 %exitcond.not, label %.loopexit, label %.lr.ph, !llvm.loop !302

.loopexit:                                        ; preds = %.lr.ph, %30, %29, %6
  %.055 = phi i32 [ -20, %6 ], [ -26, %29 ], [ 0, %30 ], [ 0, %.lr.ph ]
  ret i32 %.055
}